target datalayout = "e-m:e-p270:32:32-p271:32:32-p272:64:64-i64:64-i128:128-f80:128-n8:16:32:64-S128"
target triple = "x86_64-pc-linux-gnu"

%struct.AVFormatContext = type { ptr, ptr, ptr, ptr, ptr, i32, i32, ptr, i32, ptr, i32, ptr, ptr, i64, i64, i64, i32, i32, i32, i64, i64, ptr, i32, i32, ptr, i32, i32, i32, i32, ptr, i64, i32, i32, %struct.AVIOInterruptCB, i32, i32, i32, i32, i64, i32, i32, i32, i32, i32, i32, i32, i32, i32, i32, i32, i32, i64, i32, i32, i32, i32, i32, ptr, ptr, ptr, ptr, i32, ptr, ptr, ptr, ptr, i32, ptr, ptr, i64, ptr, ptr, ptr, i64 }
%struct.AVIOInterruptCB = type { ptr, ptr }

@.str.15 = private unnamed_addr constant [26 x i8] c"entry size %d is invalid\0A\00", align 1
@.str.16 = private unnamed_addr constant [12 x i8] c"Variable %s\00", align 1

; Function Attrs: nounwind uwtable
define internal i32 @read_table(ptr noundef %0, ptr noundef %1, ptr noundef %2) #0 {
  %4 = alloca i32, align 4
  %5 = alloca ptr, align 8
  %6 = alloca ptr, align 8
  %7 = alloca ptr, align 8
  %8 = alloca i32, align 4
  %9 = alloca i32, align 4
  %10 = alloca ptr, align 8
  %11 = alloca [17 x i8], align 16
  %12 = alloca i32, align 4
  %13 = alloca i32, align 4
  store ptr %0, ptr %5, align 8, !tbaa !14
  store ptr %1, ptr %6, align 8, !tbaa !35
  store ptr %2, ptr %7, align 8, !tbaa !102
  call void @llvm.lifetime.start.p0(i64 4, ptr %8) #10
  call void @llvm.lifetime.start.p0(i64 4, ptr %9) #10
  call void @llvm.lifetime.start.p0(i64 8, ptr %10) #10
  %14 = load ptr, ptr %5, align 8, !tbaa !14
  %15 = getelementptr inbounds nuw %struct.AVFormatContext, ptr %14, i32 0, i32 4
  %16 = load ptr, ptr %15, align 8, !tbaa !33
  store ptr %16, ptr %10, align 8, !tbaa !34
  %17 = load ptr, ptr %10, align 8, !tbaa !34
  %18 = call i64 @avio_skip(ptr noundef %17, i64 noundef 4)
  %19 = load ptr, ptr %10, align 8, !tbaa !34
  %20 = call i32 @avio_rb32(ptr noundef %19)
  store i32 %20, ptr %8, align 4, !tbaa !37
  %21 = load ptr, ptr %10, align 8, !tbaa !34
  %22 = call i64 @avio_skip(ptr noundef %21, i64 noundef 4)
  store i32 0, ptr %9, align 4, !tbaa !37
  br label %23

23:                                               ; preds = %66, %3
  %24 = load i32, ptr %9, align 4, !tbaa !37
  %25 = load i32, ptr %8, align 4, !tbaa !37
  %26 = icmp ult i32 %24, %25
  br i1 %26, label %27, label %69

27:                                               ; preds = %23
  call void @llvm.lifetime.start.p0(i64 17, ptr %11) #10
  call void @llvm.lifetime.start.p0(i64 4, ptr %12) #10
  %28 = load ptr, ptr %10, align 8, !tbaa !34
  %29 = call i32 @avio_feof(ptr noundef %28)
  %30 = icmp ne i32 %29, 0
  br i1 %30, label %31, label %32

31:                                               ; preds = %27
  store i32 -541478725, ptr %4, align 4
  store i32 1, ptr %13, align 4
  br label %63

32:                                               ; preds = %27
  %33 = load ptr, ptr %10, align 8, !tbaa !34
  %34 = getelementptr inbounds [17 x i8], ptr %11, i64 0, i64 0
  %35 = call i32 @avio_read(ptr noundef %33, ptr noundef %34, i32 noundef 16)
  %36 = icmp ne i32 %35, 16
  br i1 %36, label %37, label %38

37:                                               ; preds = %32
  store i32 -1094995529, ptr %4, align 4
  store i32 1, ptr %13, align 4
  br label %63

38:                                               ; preds = %32
  %39 = getelementptr inbounds nuw [17 x i8], ptr %11, i64 0, i64 16
  store i8 0, ptr %39, align 16, !tbaa !13
  %40 = load ptr, ptr %10, align 8, !tbaa !34
  %41 = call i32 @avio_rb32(ptr noundef %40)
  store i32 %41, ptr %12, align 4, !tbaa !37
  %42 = load i32, ptr %12, align 4, !tbaa !37
  %43 = icmp slt i32 %42, 0
  br i1 %43, label %44, label %47

44:                                               ; preds = %38
  %45 = load ptr, ptr %5, align 8, !tbaa !14
  %46 = load i32, ptr %12, align 4, !tbaa !37
  call void (ptr, i32, ptr, ...) @av_log(ptr noundef %45, i32 noundef 16, ptr noundef @.str.15, i32 noundef %46)
  store i32 -1094995529, ptr %4, align 4
  store i32 1, ptr %13, align 4
  br label %63

47:                                               ; preds = %38
  %48 = load ptr, ptr %7, align 8, !tbaa !102
  %49 = load ptr, ptr %5, align 8, !tbaa !14
  %50 = load ptr, ptr %6, align 8, !tbaa !35
  %51 = getelementptr inbounds [17 x i8], ptr %11, i64 0, i64 0
  %52 = load i32, ptr %12, align 4, !tbaa !37
  %53 = call i32 %48(ptr noundef %49, ptr noundef %50, ptr noundef %51, i32 noundef %52)
  %54 = icmp slt i32 %53, 0
  br i1 %54, label %55, label %62

55:                                               ; preds = %47
  %56 = load ptr, ptr %5, align 8, !tbaa !14
  %57 = getelementptr inbounds [17 x i8], ptr %11, i64 0, i64 0
  call void (ptr, ptr, ...) @avpriv_request_sample(ptr noundef %56, ptr noundef @.str.16, ptr noundef %57)
  %58 = load ptr, ptr %10, align 8, !tbaa !34
  %59 = load i32, ptr %12, align 4, !tbaa !37
  %60 = sext i32 %59 to i64
  %61 = call i64 @avio_skip(ptr noundef %58, i64 noundef %60)
  br label %62

62:                                               ; preds = %55, %47
  store i32 0, ptr %13, align 4
  br label %63

63:                                               ; preds = %62, %44, %37, %31
  call void @llvm.lifetime.end.p0(i64 4, ptr %12) #10
  call void @llvm.lifetime.end.p0(i64 17, ptr %11) #10
  %64 = load i32, ptr %13, align 4
  switch i32 %64, label %70 [
    i32 0, label %65
  ]

65:                                               ; preds = %63
  br label %66

66:                                               ; preds = %65
  %67 = load i32, ptr %9, align 4, !tbaa !37
  %68 = add nsw i32 %67, 1
  store i32 %68, ptr %9, align 4, !tbaa !37
  br label %23, !llvm.loop !103

69:                                               ; preds = %23
  store i32 0, ptr %4, align 4
  store i32 1, ptr %13, align 4
  br label %70

70:                                               ; preds = %69, %63
  call void @llvm.lifetime.end.p0(i64 8, ptr %10) #10
  call void @llvm.lifetime.end.p0(i64 4, ptr %9) #10
  call void @llvm.lifetime.end.p0(i64 4, ptr %8) #10
  %71 = load i32, ptr %4, align 4
  ret i32 %71
}