; Function Attrs: nounwind uwtable
define internal fastcc range(i32 -1094995529, 1) i32 @read_table(ptr noundef %0, ptr noundef %1, ptr noundef readonly captures(none) %2) unnamed_addr #1 {
  %4 = alloca [17 x i8], align 16
  %5 = getelementptr inbounds nuw i8, ptr %0, i64 32
  %6 = load ptr, ptr %5, align 8, !tbaa !27
  %7 = tail call i64 @avio_skip(ptr noundef %6, i64 noundef 4) #8
  %8 = tail call i32 @avio_rb32(ptr noundef %6) #8
  %9 = tail call i64 @avio_skip(ptr noundef %6, i64 noundef 4) #8
  %.not29 = icmp eq i32 %8, 0
  br i1 %.not29, label %.loopexit, label %.lr.ph

.lr.ph:                                           ; preds = %3
  %10 = getelementptr inbounds nuw i8, ptr %4, i64 16
  br label %11

11:                                               ; preds = %.lr.ph, %25
  %.02228 = phi i32 [ 0, %.lr.ph ], [ %26, %25 ]
  call void @llvm.lifetime.start.p0(i64 17, ptr nonnull %4) #8
  %12 = call i32 @avio_feof(ptr noundef %6) #8
  %.not = icmp eq i32 %12, 0
  br i1 %.not, label %13, label %.thread

13:                                               ; preds = %11
  %14 = call i32 @avio_read(ptr noundef %6, ptr noundef nonnull %4, i32 noundef 16) #8
  %.not25 = icmp eq i32 %14, 16
  br i1 %.not25, label %15, label %.thread

15:                                               ; preds = %13
  store i8 0, ptr %10, align 16, !tbaa !11
  %16 = call i32 @avio_rb32(ptr noundef %6) #8
  %17 = icmp slt i32 %16, 0
  br i1 %17, label %18, label %19

18:                                               ; preds = %15
  call void (ptr, i32, ptr, ...) @av_log(ptr noundef %0, i32 noundef 16, ptr noundef nonnull @.str.15, i32 noundef %16) #8
  br label %.thread

19:                                               ; preds = %15
  %20 = call i32 %2(ptr noundef %0, ptr noundef %1, ptr noundef nonnull %4, i32 noundef %16) #8, !callees !84
  %21 = icmp slt i32 %20, 0
  br i1 %21, label %22, label %25

22:                                               ; preds = %19
  call void (ptr, ptr, ...) @avpriv_request_sample(ptr noundef %0, ptr noundef nonnull @.str.16, ptr noundef nonnull %4) #8
  %23 = zext nneg i32 %16 to i64
  %24 = call i64 @avio_skip(ptr noundef %6, i64 noundef %23) #8
  br label %25

.thread:                                          ; preds = %11, %13, %18
  %.1.ph = phi i32 [ -1094995529, %18 ], [ -541478725, %11 ], [ -1094995529, %13 ]
  call void @llvm.lifetime.end.p0(i64 17, ptr nonnull %4) #8
  br label %.loopexit

25:                                               ; preds = %22, %19
  call void @llvm.lifetime.end.p0(i64 17, ptr nonnull %4) #8
  %26 = add nuw i32 %.02228, 1
  %exitcond.not = icmp eq i32 %26, %8
  br i1 %exitcond.not, label %.loopexit, label %11, !llvm.loop !85

.loopexit:                                        ; preds = %25, %3, %.thread
  %.2 = phi i32 [ %.1.ph, %.thread ], [ 0, %3 ], [ 0, %25 ]
  ret i32 %.2
}